target datalayout = "e-m:e-p270:32:32-p271:32:32-p272:64:64-i64:64-i128:128-f80:128-n8:16:32:64-S128"
target triple = "x86_64-pc-linux-gnu"

%struct.CPpmd8 = type { ptr, ptr, ptr, i32, i32, i32, i32, i32, i32, i32, i32, ptr, ptr, ptr, ptr, ptr, i32, i32, i32, i32, i32, %union.anon, [38 x i8], [128 x i8], [38 x i32], [38 x i32], [256 x i8], [260 x i8], %struct.CPpmd_See, [24 x [32 x %struct.CPpmd_See]], [25 x [64 x i16]] }
%union.anon = type { ptr }
%struct.CPpmd_See = type { i16, i8, i8 }
%struct.CPpmd8_Context_ = type { i8, i8, i16, i32, i32 }

; Function Attrs: nounwind uwtable
define dso_local ptr @Ppmd8_MakeEscFreq(ptr noundef %0, i32 noundef %1, ptr noundef %2) #0 {
  %4 = alloca ptr, align 8
  %5 = alloca i32, align 4
  %6 = alloca ptr, align 8
  %7 = alloca ptr, align 8
  %8 = alloca i32, align 4
  store ptr %0, ptr %4, align 8, !tbaa !4
  store i32 %1, ptr %5, align 4, !tbaa !15
  store ptr %2, ptr %6, align 8, !tbaa !64
  call void @llvm.lifetime.start.p0(i64 8, ptr %7) #6
  %9 = load ptr, ptr %4, align 8, !tbaa !4
  %10 = getelementptr inbounds nuw %struct.CPpmd8, ptr %9, i32 0, i32 0
  %11 = load ptr, ptr %10, align 8, !tbaa !39
  %12 = getelementptr inbounds nuw %struct.CPpmd8_Context_, ptr %11, i32 0, i32 0
  %13 = load i8, ptr %12, align 1, !tbaa !42
  %14 = zext i8 %13 to i32
  %15 = icmp ne i32 %14, 255
  br i1 %15, label %16, label %113

16:                                               ; preds = %3
  %17 = load ptr, ptr %4, align 8, !tbaa !4
  %18 = getelementptr inbounds nuw %struct.CPpmd8, ptr %17, i32 0, i32 29
  %19 = load ptr, ptr %4, align 8, !tbaa !4
  %20 = getelementptr inbounds nuw %struct.CPpmd8, ptr %19, i32 0, i32 27
  %21 = load ptr, ptr %4, align 8, !tbaa !4
  %22 = getelementptr inbounds nuw %struct.CPpmd8, ptr %21, i32 0, i32 0
  %23 = load ptr, ptr %22, align 8, !tbaa !39
  %24 = getelementptr inbounds nuw %struct.CPpmd8_Context_, ptr %23, i32 0, i32 0
  %25 = load i8, ptr %24, align 1, !tbaa !42
  %26 = zext i8 %25 to i32
  %27 = add i32 %26, 2
  %28 = zext i32 %27 to i64
  %29 = getelementptr inbounds nuw [260 x i8], ptr %20, i64 0, i64 %28
  %30 = load i8, ptr %29, align 1, !tbaa !16
  %31 = zext i8 %30 to i32
  %32 = sub i32 %31, 3
  %33 = zext i32 %32 to i64
  %34 = getelementptr inbounds nuw [24 x [32 x %struct.CPpmd_See]], ptr %18, i64 0, i64 %33
  %35 = getelementptr inbounds [32 x %struct.CPpmd_See], ptr %34, i64 0, i64 0
  %36 = load ptr, ptr %4, align 8, !tbaa !4
  %37 = getelementptr inbounds nuw %struct.CPpmd8, ptr %36, i32 0, i32 0
  %38 = load ptr, ptr %37, align 8, !tbaa !39
  %39 = getelementptr inbounds nuw %struct.CPpmd8_Context_, ptr %38, i32 0, i32 2
  %40 = load i16, ptr %39, align 1, !tbaa !44
  %41 = zext i16 %40 to i32
  %42 = load ptr, ptr %4, align 8, !tbaa !4
  %43 = getelementptr inbounds nuw %struct.CPpmd8, ptr %42, i32 0, i32 0
  %44 = load ptr, ptr %43, align 8, !tbaa !39
  %45 = getelementptr inbounds nuw %struct.CPpmd8_Context_, ptr %44, i32 0, i32 0
  %46 = load i8, ptr %45, align 1, !tbaa !42
  %47 = zext i8 %46 to i32
  %48 = add i32 %47, 1
  %49 = mul i32 11, %48
  %50 = icmp ugt i32 %41, %49
  %51 = zext i1 %50 to i32
  %52 = sext i32 %51 to i64
  %53 = getelementptr inbounds %struct.CPpmd_See, ptr %35, i64 %52
  %54 = load ptr, ptr %4, align 8, !tbaa !4
  %55 = getelementptr inbounds nuw %struct.CPpmd8, ptr %54, i32 0, i32 0
  %56 = load ptr, ptr %55, align 8, !tbaa !39
  %57 = getelementptr inbounds nuw %struct.CPpmd8_Context_, ptr %56, i32 0, i32 0
  %58 = load i8, ptr %57, align 1, !tbaa !42
  %59 = zext i8 %58 to i32
  %60 = mul i32 2, %59
  %61 = load ptr, ptr %4, align 8, !tbaa !4
  %62 = getelementptr inbounds nuw %struct.CPpmd8, ptr %61, i32 0, i32 11
  %63 = load ptr, ptr %62, align 8, !tbaa !8
  %64 = load ptr, ptr %4, align 8, !tbaa !4
  %65 = getelementptr inbounds nuw %struct.CPpmd8, ptr %64, i32 0, i32 0
  %66 = load ptr, ptr %65, align 8, !tbaa !39
  %67 = getelementptr inbounds nuw %struct.CPpmd8_Context_, ptr %66, i32 0, i32 4
  %68 = load i32, ptr %67, align 1, !tbaa !40
  %69 = zext i32 %68 to i64
  %70 = getelementptr inbounds nuw i8, ptr %63, i64 %69
  %71 = getelementptr inbounds nuw %struct.CPpmd8_Context_, ptr %70, i32 0, i32 0
  %72 = load i8, ptr %71, align 1, !tbaa !42
  %73 = zext i8 %72 to i32
  %74 = load i32, ptr %5, align 4, !tbaa !15
  %75 = add i32 %73, %74
  %76 = icmp ult i32 %60, %75
  %77 = zext i1 %76 to i32
  %78 = mul i32 2, %77
  %79 = zext i32 %78 to i64
  %80 = getelementptr inbounds nuw %struct.CPpmd_See, ptr %53, i64 %79
  %81 = load ptr, ptr %4, align 8, !tbaa !4
  %82 = getelementptr inbounds nuw %struct.CPpmd8, ptr %81, i32 0, i32 0
  %83 = load ptr, ptr %82, align 8, !tbaa !39
  %84 = getelementptr inbounds nuw %struct.CPpmd8_Context_, ptr %83, i32 0, i32 1
  %85 = load i8, ptr %84, align 1, !tbaa !43
  %86 = zext i8 %85 to i32
  %87 = sext i32 %86 to i64
  %88 = getelementptr inbounds %struct.CPpmd_See, ptr %80, i64 %87
  store ptr %88, ptr %7, align 8, !tbaa !4
  call void @llvm.lifetime.start.p0(i64 4, ptr %8) #6
  %89 = load ptr, ptr %7, align 8, !tbaa !4
  %90 = getelementptr inbounds nuw %struct.CPpmd_See, ptr %89, i32 0, i32 0
  %91 = load i16, ptr %90, align 2, !tbaa !60
  %92 = zext i16 %91 to i32
  %93 = load ptr, ptr %7, align 8, !tbaa !4
  %94 = getelementptr inbounds nuw %struct.CPpmd_See, ptr %93, i32 0, i32 1
  %95 = load i8, ptr %94, align 2, !tbaa !59
  %96 = zext i8 %95 to i32
  %97 = ashr i32 %92, %96
  store i32 %97, ptr %8, align 4, !tbaa !15
  %98 = load ptr, ptr %7, align 8, !tbaa !4
  %99 = getelementptr inbounds nuw %struct.CPpmd_See, ptr %98, i32 0, i32 0
  %100 = load i16, ptr %99, align 2, !tbaa !60
  %101 = zext i16 %100 to i32
  %102 = load i32, ptr %8, align 4, !tbaa !15
  %103 = sub i32 %101, %102
  %104 = trunc i32 %103 to i16
  %105 = load ptr, ptr %7, align 8, !tbaa !4
  %106 = getelementptr inbounds nuw %struct.CPpmd_See, ptr %105, i32 0, i32 0
  store i16 %104, ptr %106, align 2, !tbaa !60
  %107 = load i32, ptr %8, align 4, !tbaa !15
  %108 = load i32, ptr %8, align 4, !tbaa !15
  %109 = icmp eq i32 %108, 0
  %110 = zext i1 %109 to i32
  %111 = add i32 %107, %110
  %112 = load ptr, ptr %6, align 8, !tbaa !64
  store i32 %111, ptr %112, align 4, !tbaa !15
  call void @llvm.lifetime.end.p0(i64 4, ptr %8) #6
  br label %117

113:                                              ; preds = %3
  %114 = load ptr, ptr %4, align 8, !tbaa !4
  %115 = getelementptr inbounds nuw %struct.CPpmd8, ptr %114, i32 0, i32 28
  store ptr %115, ptr %7, align 8, !tbaa !4
  %116 = load ptr, ptr %6, align 8, !tbaa !64
  store i32 1, ptr %116, align 4, !tbaa !15
  br label %117

117:                                              ; preds = %113, %16
  %118 = load ptr, ptr %7, align 8, !tbaa !4
  call void @llvm.lifetime.end.p0(i64 8, ptr %7) #6
  ret ptr %118
}