; Function Attrs: mustprogress nofree norecurse nosync nounwind willreturn memory(read, argmem: readwrite, inaccessiblemem: none) uwtable
define dso_local nonnull ptr @Ppmd8_MakeEscFreq(ptr noundef %0, i32 noundef %1, ptr noundef writeonly captures(none) initializes((0, 4)) %2) local_unnamed_addr #7 {
  %4 = load ptr, ptr %0, align 8, !tbaa !36
  %5 = load i8, ptr %4, align 1, !tbaa !39
  %.not = icmp eq i8 %5, -1
  br i1 %.not, label %52, label %6

6:                                                ; preds = %3
  %7 = zext i8 %5 to i32
  %8 = getelementptr inbounds nuw i8, ptr %0, i64 1120
  %9 = getelementptr inbounds nuw i8, ptr %0, i64 856
  %10 = add nuw nsw i32 %7, 2
  %11 = zext nneg i32 %10 to i64
  %12 = getelementptr inbounds nuw [260 x i8], ptr %9, i64 0, i64 %11
  %13 = load i8, ptr %12, align 1, !tbaa !14
  %14 = zext i8 %13 to i64
  %15 = add nuw nsw i64 %14, 4294967293
  %16 = and i64 %15, 4294967295
  %17 = getelementptr inbounds nuw [24 x [32 x %struct.CPpmd_See]], ptr %8, i64 0, i64 %16
  %18 = getelementptr inbounds nuw i8, ptr %4, i64 2
  %19 = load i16, ptr %18, align 1, !tbaa !41
  %20 = zext i16 %19 to i32
  %21 = mul nuw nsw i32 %7, 11
  %22 = add nuw nsw i32 %21, 11
  %23 = icmp samesign ult i32 %22, %20
  %24 = zext i1 %23 to i64
  %25 = getelementptr inbounds nuw %struct.CPpmd_See, ptr %17, i64 %24
  %26 = shl nuw nsw i32 %7, 1
  %27 = getelementptr inbounds nuw i8, ptr %0, i64 56
  %28 = load ptr, ptr %27, align 8, !tbaa !4
  %29 = getelementptr inbounds nuw i8, ptr %4, i64 8
  %30 = load i32, ptr %29, align 1, !tbaa !37
  %31 = zext i32 %30 to i64
  %32 = getelementptr inbounds nuw i8, ptr %28, i64 %31
  %33 = load i8, ptr %32, align 1, !tbaa !39
  %34 = zext i8 %33 to i32
  %35 = add i32 %1, %34
  %36 = icmp ult i32 %26, %35
  %37 = select i1 %36, i64 2, i64 0
  %38 = getelementptr inbounds nuw %struct.CPpmd_See, ptr %25, i64 %37
  %39 = getelementptr inbounds nuw i8, ptr %4, i64 1
  %40 = load i8, ptr %39, align 1, !tbaa !40
  %41 = zext i8 %40 to i64
  %42 = getelementptr inbounds nuw %struct.CPpmd_See, ptr %38, i64 %41
  %43 = load i16, ptr %42, align 2, !tbaa !58
  %44 = zext i16 %43 to i32
  %45 = getelementptr inbounds nuw i8, ptr %42, i64 2
  %46 = load i8, ptr %45, align 2, !tbaa !57
  %47 = zext nneg i8 %46 to i32
  %48 = lshr i32 %44, %47
  %49 = trunc nuw i32 %48 to i16
  %50 = sub i16 %43, %49
  store i16 %50, ptr %42, align 2, !tbaa !58
  %51 = tail call i32 @llvm.umax.i32(i32 %48, i32 1)
  br label %54

52:                                               ; preds = %3
  %53 = getelementptr inbounds nuw i8, ptr %0, i64 1116
  br label %54

54:                                               ; preds = %52, %6
  %storemerge = phi i32 [ 1, %52 ], [ %51, %6 ]
  %.0 = phi ptr [ %53, %52 ], [ %42, %6 ]
  store i32 %storemerge, ptr %2, align 4, !tbaa !62
  ret ptr %.0
}